; Function Attrs: mustprogress nofree nounwind uwtable
define hidden noundef zeroext i1 @_ZN9DwarfFile21MarkedDwarfFileReader12read_uleb128EPma(ptr nocapture noundef nonnull align 8 dereferenceable(40) %0, ptr nocapture noundef %1, i8 noundef signext %2) local_unnamed_addr #3 align 2 {
  %4 = alloca i8, align 1
  call void @llvm.lifetime.start.p0(i64 1, ptr nonnull %4)
  store i64 0, ptr %1, align 8
  %5 = getelementptr inbounds i8, ptr %0, i64 24
  %6 = getelementptr inbounds i8, ptr %0, i64 8
  br label %7

7:                                                ; preds = %13, %3
  %.021.i = phi i32 [ 0, %3 ], [ %23, %13 ]
  %.0.i = phi i8 [ 0, %3 ], [ %14, %13 ]
  %8 = load i64, ptr %5, align 8
  %9 = add nsw i64 %8, 1
  store i64 %9, ptr %5, align 8
  %10 = load ptr, ptr %6, align 8
  %11 = call i64 @fread(ptr noundef nonnull %4, i64 noundef 1, i64 noundef 1, ptr noundef %10)
  %12 = icmp eq i64 %11, 1
  br i1 %12, label %13, label %_ZN9DwarfFile21MarkedDwarfFileReader11read_leb128EPmab.exit

13:                                               ; preds = %7
  %14 = add nuw nsw i8 %.0.i, 1
  %15 = load i8, ptr %4, align 1
  %16 = and i8 %15, 127
  %17 = zext nneg i8 %16 to i32
  %18 = and i32 %.021.i, 255
  %19 = shl i32 %17, %18
  %20 = zext i32 %19 to i64
  %21 = load i64, ptr %1, align 8
  %22 = or i64 %21, %20
  store i64 %22, ptr %1, align 8
  %23 = add nuw nsw i32 %18, 7
  %24 = icmp slt i8 %15, 0
  %25 = icmp ult i8 %.0.i, 7
  %or.cond5.i = select i1 %24, i1 %25, i1 false
  br i1 %or.cond5.i, label %7, label %26, !llvm.loop !15

26:                                               ; preds = %13
  %27 = icmp ugt i8 %.0.i, 7
  br i1 %27, label %_ZN9DwarfFile21MarkedDwarfFileReader11read_leb128EPmab.exit, label %28

28:                                               ; preds = %26
  %.not.i = icmp eq i8 %2, -1
  %29 = icmp slt i8 %.0.i, %2
  %or.cond29.i.not = select i1 %.not.i, i1 true, i1 %29
  br label %_ZN9DwarfFile21MarkedDwarfFileReader11read_leb128EPmab.exit

_ZN9DwarfFile21MarkedDwarfFileReader11read_leb128EPmab.exit: ; preds = %7, %28, %26
  %.023.i = phi i1 [ false, %26 ], [ %or.cond29.i.not, %28 ], [ false, %7 ]
  call void @llvm.lifetime.end.p0(i64 1, ptr nonnull %4)
  ret i1 %.023.i
}